; ModuleID = 'source-C-CXX/30/1877.c'
source_filename = "source-C-CXX/30/1877.c"
target datalayout = "e-m:e-p270:32:32-p271:32:32-p272:64:64-i64:64-f80:128-n8:16:32:64-S128"
target triple = "x86_64-pc-linux-gnu"

%struct.student = type { [500 x i8], %struct.student* }

@n = dso_local local_unnamed_addr global i32 0, align 4
@.str = private unnamed_addr constant [4 x i8] c"end\00", align 1

; Function Attrs: nounwind sspstrong uwtable
define dso_local %struct.student* @create() local_unnamed_addr #0 {
  store i32 0, i32* @n, align 4, !tbaa !5
  %1 = tail call noalias align 16 dereferenceable_or_null(512) i8* @malloc(i64 512) #5
  %2 = bitcast i8* %1 to %struct.student*
  %3 = getelementptr inbounds %struct.student, %struct.student* %2, i64 0, i32 0, i64 0
  %4 = tail call i32 (i8*, ...) bitcast (i32 (...)* @gets to i32 (i8*, ...)*)(i8* %3) #5
  %5 = tail call i32 @strcmp(i8* noundef nonnull dereferenceable(1) %3, i8* noundef nonnull dereferenceable(4) getelementptr inbounds ([4 x i8], [4 x i8]* @.str, i64 0, i64 0)) #6
  %6 = icmp eq i32 %5, 0
  br i1 %6, label %22, label %7

7:                                                ; preds = %0, %7
  %8 = phi %struct.student* [ %14, %7 ], [ %2, %0 ]
  %9 = phi %struct.student* [ %17, %7 ], [ %2, %0 ]
  %10 = load i32, i32* @n, align 4, !tbaa !5
  %11 = add nsw i32 %10, 1
  store i32 %11, i32* @n, align 4, !tbaa !5
  %12 = icmp eq i32 %10, 0
  %13 = select i1 %12, %struct.student* null, %struct.student* %8
  %14 = select i1 %12, %struct.student* %8, %struct.student* %9
  %15 = getelementptr inbounds %struct.student, %struct.student* %9, i64 0, i32 1
  store %struct.student* %13, %struct.student** %15, align 8
  %16 = tail call noalias align 16 dereferenceable_or_null(512) i8* @malloc(i64 512) #5
  %17 = bitcast i8* %16 to %struct.student*
  %18 = getelementptr inbounds %struct.student, %struct.student* %17, i64 0, i32 0, i64 0
  %19 = tail call i32 (i8*, ...) bitcast (i32 (...)* @gets to i32 (i8*, ...)*)(i8* %18) #5
  %20 = tail call i32 @strcmp(i8* noundef nonnull dereferenceable(1) %18, i8* noundef nonnull dereferenceable(4) getelementptr inbounds ([4 x i8], [4 x i8]* @.str, i64 0, i64 0)) #6
  %21 = icmp eq i32 %20, 0
  br i1 %21, label %22, label %7, !llvm.loop !9

22:                                               ; preds = %7, %0
  %23 = phi %struct.student* [ null, %0 ], [ %9, %7 ]
  ret %struct.student* %23
}

; Function Attrs: inaccessiblememonly mustprogress nofree nounwind willreturn
declare noalias noundef align 16 i8* @malloc(i64 noundef) local_unnamed_addr #1

declare i32 @gets(...) local_unnamed_addr #2

; Function Attrs: argmemonly mustprogress nofree nounwind readonly willreturn
declare i32 @strcmp(i8* nocapture, i8* nocapture) local_unnamed_addr #3

; Function Attrs: nounwind sspstrong uwtable
define dso_local i32 @main() local_unnamed_addr #0 {
  store i32 0, i32* @n, align 4, !tbaa !5
  %1 = tail call noalias align 16 dereferenceable_or_null(512) i8* @malloc(i64 512) #5
  %2 = bitcast i8* %1 to %struct.student*
  %3 = getelementptr inbounds %struct.student, %struct.student* %2, i64 0, i32 0, i64 0
  %4 = tail call i32 (i8*, ...) bitcast (i32 (...)* @gets to i32 (i8*, ...)*)(i8* %3) #5
  %5 = tail call i32 @strcmp(i8* noundef nonnull dereferenceable(1) %3, i8* noundef nonnull dereferenceable(4) getelementptr inbounds ([4 x i8], [4 x i8]* @.str, i64 0, i64 0)) #6
  %6 = icmp eq i32 %5, 0
  br i1 %6, label %29, label %7

7:                                                ; preds = %0, %7
  %8 = phi %struct.student* [ %14, %7 ], [ %2, %0 ]
  %9 = phi %struct.student* [ %17, %7 ], [ %2, %0 ]
  %10 = load i32, i32* @n, align 4, !tbaa !5
  %11 = add nsw i32 %10, 1
  store i32 %11, i32* @n, align 4, !tbaa !5
  %12 = icmp eq i32 %10, 0
  %13 = select i1 %12, %struct.student* null, %struct.student* %8
  %14 = select i1 %12, %struct.student* %8, %struct.student* %9
  %15 = getelementptr inbounds %struct.student, %struct.student* %9, i64 0, i32 1
  store %struct.student* %13, %struct.student** %15, align 8
  %16 = tail call noalias align 16 dereferenceable_or_null(512) i8* @malloc(i64 512) #5
  %17 = bitcast i8* %16 to %struct.student*
  %18 = getelementptr inbounds %struct.student, %struct.student* %17, i64 0, i32 0, i64 0
  %19 = tail call i32 (i8*, ...) bitcast (i32 (...)* @gets to i32 (i8*, ...)*)(i8* %18) #5
  %20 = tail call i32 @strcmp(i8* noundef nonnull dereferenceable(1) %18, i8* noundef nonnull dereferenceable(4) getelementptr inbounds ([4 x i8], [4 x i8]* @.str, i64 0, i64 0)) #6
  %21 = icmp eq i32 %20, 0
  br i1 %21, label %22, label %7, !llvm.loop !9

22:                                               ; preds = %7, %22
  %23 = phi %struct.student* [ %27, %22 ], [ %9, %7 ]
  %24 = getelementptr inbounds %struct.student, %struct.student* %23, i64 0, i32 0, i64 0
  %25 = tail call i32 @puts(i8* nonnull dereferenceable(1) %24)
  %26 = getelementptr inbounds %struct.student, %struct.student* %23, i64 0, i32 1
  %27 = load %struct.student*, %struct.student** %26, align 8, !tbaa !11
  %28 = icmp eq %struct.student* %27, null
  br i1 %28, label %29, label %22, !llvm.loop !14

29:                                               ; preds = %22, %0
  ret i32 0
}

; Function Attrs: nofree nounwind
declare noundef i32 @puts(i8* nocapture noundef readonly) local_unnamed_addr #4


!llvm.module.flags = !{!0, !1, !2, !3}
!llvm.ident = !{!4}

!0 = !{i32 1, !"wchar_size", i32 4}
!1 = !{i32 7, !"PIC Level", i32 2}
!2 = !{i32 7, !"PIE Level", i32 2}
!3 = !{i32 7, !"uwtable", i32 1}
!4 = !{!"clang version 13.0.0"}
!5 = !{!6, !6, i64 0}
!6 = !{!"int", !7, i64 0}
!7 = !{!"omnipotent char", !8, i64 0}
!8 = !{!"Simple C/C++ TBAA"}
!9 = distinct !{!9, !10}
!10 = !{!"llvm.loop.mustprogress"}
!11 = !{!12, !13, i64 504}
!12 = !{!"student", !7, i64 0, !13, i64 504}
!13 = !{!"any pointer", !7, i64 0}
!14 = distinct !{!14, !10}
